target datalayout = "e-m:e-p270:32:32-p271:32:32-p272:64:64-i64:64-i128:128-f80:128-n8:16:32:64-S128"
target triple = "x86_64-pc-linux-gnu"

%struct.rb_red_blk_tree = type { ptr, ptr, ptr, ptr }
%struct.rb_red_blk_node = type { ptr, i32, ptr, ptr, ptr }

; Function Attrs: nounwind uwtable
define ptr @RBExactQuery(ptr noundef %0, ptr noundef %1) #0 {
  %3 = alloca ptr, align 8
  %4 = alloca ptr, align 8
  %5 = alloca ptr, align 8
  %6 = alloca ptr, align 8
  %7 = alloca ptr, align 8
  %8 = alloca i32, align 4
  %9 = alloca i32, align 4
  store ptr %0, ptr %4, align 8, !tbaa !7
  store ptr %1, ptr %5, align 8, !tbaa !3
  call void @llvm.lifetime.start.p0(i64 8, ptr %6) #4
  %10 = load ptr, ptr %4, align 8, !tbaa !7
  %11 = getelementptr inbounds nuw %struct.rb_red_blk_tree, ptr %10, i32 0, i32 2
  %12 = load ptr, ptr %11, align 8, !tbaa !9
  %13 = getelementptr inbounds nuw %struct.rb_red_blk_node, ptr %12, i32 0, i32 2
  %14 = load ptr, ptr %13, align 8, !tbaa !19
  store ptr %14, ptr %6, align 8, !tbaa !15
  call void @llvm.lifetime.start.p0(i64 8, ptr %7) #4
  %15 = load ptr, ptr %4, align 8, !tbaa !7
  %16 = getelementptr inbounds nuw %struct.rb_red_blk_tree, ptr %15, i32 0, i32 3
  %17 = load ptr, ptr %16, align 8, !tbaa !12
  store ptr %17, ptr %7, align 8, !tbaa !15
  call void @llvm.lifetime.start.p0(i64 4, ptr %8) #4
  %18 = load ptr, ptr %6, align 8, !tbaa !15
  %19 = load ptr, ptr %7, align 8, !tbaa !15
  %20 = icmp eq ptr %18, %19
  br i1 %20, label %21, label %22

21:                                               ; preds = %2
  store ptr null, ptr %3, align 8
  store i32 1, ptr %9, align 4
  br label %61

22:                                               ; preds = %2
  %23 = load ptr, ptr %4, align 8, !tbaa !7
  %24 = getelementptr inbounds nuw %struct.rb_red_blk_tree, ptr %23, i32 0, i32 0
  %25 = load ptr, ptr %24, align 8, !tbaa !13
  %26 = load ptr, ptr %6, align 8, !tbaa !15
  %27 = getelementptr inbounds nuw %struct.rb_red_blk_node, ptr %26, i32 0, i32 0
  %28 = load ptr, ptr %27, align 8, !tbaa !22
  %29 = load ptr, ptr %5, align 8, !tbaa !3
  %30 = call i32 %25(ptr noundef %28, ptr noundef %29)
  store i32 %30, ptr %8, align 4, !tbaa !30
  br label %31

31:                                               ; preds = %50, %22
  %32 = load i32, ptr %8, align 4, !tbaa !30
  %33 = icmp ne i32 0, %32
  br i1 %33, label %34, label %59

34:                                               ; preds = %31
  %35 = load i32, ptr %8, align 4, !tbaa !30
  %36 = icmp eq i32 1, %35
  br i1 %36, label %37, label %41

37:                                               ; preds = %34
  %38 = load ptr, ptr %6, align 8, !tbaa !15
  %39 = getelementptr inbounds nuw %struct.rb_red_blk_node, ptr %38, i32 0, i32 2
  %40 = load ptr, ptr %39, align 8, !tbaa !19
  store ptr %40, ptr %6, align 8, !tbaa !15
  br label %45

41:                                               ; preds = %34
  %42 = load ptr, ptr %6, align 8, !tbaa !15
  %43 = getelementptr inbounds nuw %struct.rb_red_blk_node, ptr %42, i32 0, i32 3
  %44 = load ptr, ptr %43, align 8, !tbaa !16
  store ptr %44, ptr %6, align 8, !tbaa !15
  br label %45

45:                                               ; preds = %41, %37
  %46 = load ptr, ptr %6, align 8, !tbaa !15
  %47 = load ptr, ptr %7, align 8, !tbaa !15
  %48 = icmp eq ptr %46, %47
  br i1 %48, label %49, label %50

49:                                               ; preds = %45
  store ptr null, ptr %3, align 8
  store i32 1, ptr %9, align 4
  br label %61

50:                                               ; preds = %45
  %51 = load ptr, ptr %4, align 8, !tbaa !7
  %52 = getelementptr inbounds nuw %struct.rb_red_blk_tree, ptr %51, i32 0, i32 0
  %53 = load ptr, ptr %52, align 8, !tbaa !13
  %54 = load ptr, ptr %6, align 8, !tbaa !15
  %55 = getelementptr inbounds nuw %struct.rb_red_blk_node, ptr %54, i32 0, i32 0
  %56 = load ptr, ptr %55, align 8, !tbaa !22
  %57 = load ptr, ptr %5, align 8, !tbaa !3
  %58 = call i32 %53(ptr noundef %56, ptr noundef %57)
  store i32 %58, ptr %8, align 4, !tbaa !30
  br label %31, !llvm.loop !31

59:                                               ; preds = %31
  %60 = load ptr, ptr %6, align 8, !tbaa !15
  store ptr %60, ptr %3, align 8
  store i32 1, ptr %9, align 4
  br label %61

61:                                               ; preds = %59, %49, %21
  call void @llvm.lifetime.end.p0(i64 4, ptr %8) #4
  call void @llvm.lifetime.end.p0(i64 8, ptr %7) #4
  call void @llvm.lifetime.end.p0(i64 8, ptr %6) #4
  %62 = load ptr, ptr %3, align 8
  ret ptr %62
}