; Function Attrs: nounwind uwtable
define noundef ptr @RBExactQuery(ptr noundef readonly captures(none) %0, ptr noundef %1) local_unnamed_addr #3 {
  %3 = getelementptr inbounds nuw i8, ptr %0, i64 16
  %4 = load ptr, ptr %3, align 8, !tbaa !18
  %5 = getelementptr inbounds nuw i8, ptr %4, i64 16
  %6 = load ptr, ptr %5, align 8, !tbaa !14
  %7 = getelementptr inbounds nuw i8, ptr %0, i64 24
  %8 = load ptr, ptr %7, align 8, !tbaa !10
  %9 = icmp eq ptr %6, %8
  br i1 %9, label %.loopexit, label %.preheader

.preheader:                                       ; preds = %2, %14
  %.1.sink = phi ptr [ %.1, %14 ], [ %6, %2 ]
  %10 = load ptr, ptr %0, align 8, !tbaa !3
  %11 = load ptr, ptr %.1.sink, align 8, !tbaa !17
  %12 = tail call i32 %10(ptr noundef %11, ptr noundef %1) #7
  switch i32 %12, label %13 [
    i32 0, label %.loopexit
    i32 1, label %14
  ]

13:                                               ; preds = %.preheader
  br label %14

14:                                               ; preds = %.preheader, %13
  %.sink = phi i64 [ 24, %13 ], [ 16, %.preheader ]
  %15 = getelementptr inbounds nuw i8, ptr %.1.sink, i64 %.sink
  %.1 = load ptr, ptr %15, align 8, !tbaa !19
  %16 = icmp eq ptr %.1, %8
  br i1 %16, label %.loopexit, label %.preheader, !llvm.loop !27

.loopexit:                                        ; preds = %.preheader, %14, %2
  %.017 = phi ptr [ null, %2 ], [ %.1.sink, %.preheader ], [ null, %14 ]
  ret ptr %.017
}